target datalayout = "e-m:e-p270:32:32-p271:32:32-p272:64:64-i64:64-i128:128-f80:128-n8:16:32:64-S128"
target triple = "x86_64-pc-linux-gnu"

@.str = private unnamed_addr constant [33 x i8] c"\0AERROR - %s line %d failed with:\00", align 1
@.str.1 = private unnamed_addr constant [105 x i8] c"generated/home/dtcxzyw/WorkSpace/Projects/compilers/llvm-opt-benchmark/bench/wolfssl/wolfssl/tests/api.c\00", align 1
@.str.2 = private unnamed_addr constant [16 x i8] c"\0A    expected: \00", align 1
@stdout = external global ptr, align 8
@.str.3 = private unnamed_addr constant [9 x i8] c"%s == %s\00", align 1
@.str.6 = private unnamed_addr constant [16 x i8] c"\0A    result:   \00", align 1
@.str.7 = private unnamed_addr constant [9 x i8] c"%d != %d\00", align 1
@.str.8 = private unnamed_addr constant [3 x i8] c"\0A\0A\00", align 1
@.str.989 = private unnamed_addr constant [15 x i8] c"%s is not null\00", align 1
@.str.1024 = private unnamed_addr constant [2 x i8] c"0\00", align 1
@.str.1078 = private unnamed_addr constant [15 x i8] c"(BAD_FUNC_ARG)\00", align 1
@.str.1498 = private unnamed_addr constant [57 x i8] c"wc_AllocDer(((void*)0), testSize, CERT_TYPE, ((void*)0))\00", align 1
@.str.1499 = private unnamed_addr constant [52 x i8] c"wc_AllocDer(&pDer, testSize, CERT_TYPE, ((void*)0))\00", align 1
@.str.1500 = private unnamed_addr constant [5 x i8] c"pDer\00", align 1
@.str.1501 = private unnamed_addr constant [13 x i8] c"pDer => NULL\00", align 1

; Function Attrs: nounwind uwtable
define internal i32 @test_wc_AllocDer() #0 {
  %1 = alloca i32, align 4
  %2 = alloca i32, align 4
  %3 = alloca ptr, align 8
  %4 = alloca i32, align 4
  %5 = alloca i32, align 4
  %6 = alloca i32, align 4
  %7 = alloca i32, align 4
  %8 = alloca i32, align 4
  call void @llvm.lifetime.start.p0(i64 4, ptr %1) #14
  store i32 3, ptr %1, align 4, !tbaa !10
  call void @llvm.lifetime.start.p0(i64 4, ptr %2) #14
  store i32 0, ptr %2, align 4, !tbaa !10
  call void @llvm.lifetime.start.p0(i64 8, ptr %3) #14
  store ptr null, ptr %3, align 8, !tbaa !137
  call void @llvm.lifetime.start.p0(i64 4, ptr %4) #14
  store i32 1024, ptr %4, align 4, !tbaa !10
  br label %9

9:                                                ; preds = %0
  %10 = load i32, ptr %1, align 4, !tbaa !10
  %11 = icmp eq i32 %10, 1
  br i1 %11, label %21, label %12

12:                                               ; preds = %9
  %13 = load i32, ptr %1, align 4, !tbaa !10
  %14 = icmp eq i32 %13, 3
  br i1 %14, label %21, label %15

15:                                               ; preds = %12
  %16 = load i32, ptr %1, align 4, !tbaa !10
  %17 = icmp eq i32 %16, 2
  br i1 %17, label %21, label %18

18:                                               ; preds = %15
  %19 = load i32, ptr %1, align 4, !tbaa !10
  %20 = icmp eq i32 %19, 4
  br i1 %20, label %21, label %82

21:                                               ; preds = %18, %15, %12, %9
  call void @llvm.lifetime.start.p0(i64 4, ptr %5) #14
  %22 = load i32, ptr %4, align 4, !tbaa !10
  %23 = call i32 @wc_AllocDer(ptr noundef null, i32 noundef %22, i32 noundef 0, ptr noundef null)
  store i32 %23, ptr %5, align 4, !tbaa !10
  call void @llvm.lifetime.start.p0(i64 4, ptr %6) #14
  store i32 -173, ptr %6, align 4, !tbaa !10
  br label %24

24:                                               ; preds = %21
  %25 = load i32, ptr %1, align 4, !tbaa !10
  %26 = icmp eq i32 %25, 1
  br i1 %26, label %36, label %27

27:                                               ; preds = %24
  %28 = load i32, ptr %1, align 4, !tbaa !10
  %29 = icmp eq i32 %28, 3
  br i1 %29, label %36, label %30

30:                                               ; preds = %27
  %31 = load i32, ptr %1, align 4, !tbaa !10
  %32 = icmp eq i32 %31, 2
  br i1 %32, label %36, label %33

33:                                               ; preds = %30
  %34 = load i32, ptr %1, align 4, !tbaa !10
  %35 = icmp eq i32 %34, 4
  br i1 %35, label %36, label %73

36:                                               ; preds = %33, %30, %27, %24
  %37 = load i32, ptr %5, align 4, !tbaa !10
  %38 = load i32, ptr %6, align 4, !tbaa !10
  %39 = icmp eq i32 %37, %38
  br i1 %39, label %66, label %40

40:                                               ; preds = %36
  br label %41

41:                                               ; preds = %40
  %42 = load i32, ptr %1, align 4, !tbaa !10
  %43 = icmp eq i32 %42, 2
  br i1 %43, label %47, label %44

44:                                               ; preds = %41
  %45 = load i32, ptr %1, align 4, !tbaa !10
  %46 = icmp eq i32 %45, 4
  br i1 %46, label %47, label %49

47:                                               ; preds = %44, %41
  %48 = load i32, ptr %2, align 4, !tbaa !10
  store i32 %48, ptr %1, align 4, !tbaa !10
  br label %63

49:                                               ; preds = %44
  %50 = call i32 (ptr, ...) @printf(ptr noundef @.str, ptr noundef @.str.1, i32 noundef 53413)
  %51 = load ptr, ptr @stdout, align 8, !tbaa !22
  %52 = call i32 @fputs(ptr noundef @.str.2, ptr noundef %51)
  %53 = call i32 (ptr, ...) @printf(ptr noundef @.str.3, ptr noundef @.str.1498, ptr noundef @.str.1078)
  %54 = load ptr, ptr @stdout, align 8, !tbaa !22
  %55 = call i32 @fputs(ptr noundef @.str.6, ptr noundef %54)
  %56 = load i32, ptr %5, align 4, !tbaa !10
  %57 = load i32, ptr %6, align 4, !tbaa !10
  %58 = call i32 (ptr, ...) @printf(ptr noundef @.str.7, i32 noundef %56, i32 noundef %57)
  %59 = load ptr, ptr @stdout, align 8, !tbaa !22
  %60 = call i32 @fputs(ptr noundef @.str.8, ptr noundef %59)
  %61 = load ptr, ptr @stdout, align 8, !tbaa !22
  %62 = call i32 @fflush(ptr noundef %61)
  store i32 0, ptr %1, align 4, !tbaa !10
  br label %63

63:                                               ; preds = %49, %47
  br label %64

64:                                               ; preds = %63
  br label %65

65:                                               ; preds = %64
  br label %72

66:                                               ; preds = %36
  %67 = load i32, ptr %1, align 4, !tbaa !10
  %68 = icmp eq i32 %67, 4
  br i1 %68, label %69, label %70

69:                                               ; preds = %66
  store i32 2, ptr %1, align 4, !tbaa !10
  br label %71

70:                                               ; preds = %66
  store i32 1, ptr %1, align 4, !tbaa !10
  br label %71

71:                                               ; preds = %70, %69
  br label %72

72:                                               ; preds = %71, %65
  br label %73

73:                                               ; preds = %72, %33
  %74 = load i32, ptr %1, align 4, !tbaa !10
  %75 = icmp eq i32 %74, 2
  br i1 %75, label %76, label %79

76:                                               ; preds = %73
  %77 = load i32, ptr %2, align 4, !tbaa !10
  %78 = add nsw i32 %77, -1
  store i32 %78, ptr %2, align 4, !tbaa !10
  br label %79

79:                                               ; preds = %76, %73
  br label %80

80:                                               ; preds = %79
  br label %81

81:                                               ; preds = %80
  call void @llvm.lifetime.end.p0(i64 4, ptr %6) #14
  call void @llvm.lifetime.end.p0(i64 4, ptr %5) #14
  br label %82

82:                                               ; preds = %81, %18
  br label %83

83:                                               ; preds = %82
  br label %84

84:                                               ; preds = %83
  br label %85

85:                                               ; preds = %84
  %86 = load i32, ptr %1, align 4, !tbaa !10
  %87 = icmp eq i32 %86, 1
  br i1 %87, label %97, label %88

88:                                               ; preds = %85
  %89 = load i32, ptr %1, align 4, !tbaa !10
  %90 = icmp eq i32 %89, 3
  br i1 %90, label %97, label %91

91:                                               ; preds = %88
  %92 = load i32, ptr %1, align 4, !tbaa !10
  %93 = icmp eq i32 %92, 2
  br i1 %93, label %97, label %94

94:                                               ; preds = %91
  %95 = load i32, ptr %1, align 4, !tbaa !10
  %96 = icmp eq i32 %95, 4
  br i1 %96, label %97, label %158

97:                                               ; preds = %94, %91, %88, %85
  call void @llvm.lifetime.start.p0(i64 4, ptr %7) #14
  %98 = load i32, ptr %4, align 4, !tbaa !10
  %99 = call i32 @wc_AllocDer(ptr noundef %3, i32 noundef %98, i32 noundef 0, ptr noundef null)
  store i32 %99, ptr %7, align 4, !tbaa !10
  call void @llvm.lifetime.start.p0(i64 4, ptr %8) #14
  store i32 0, ptr %8, align 4, !tbaa !10
  br label %100

100:                                              ; preds = %97
  %101 = load i32, ptr %1, align 4, !tbaa !10
  %102 = icmp eq i32 %101, 1
  br i1 %102, label %112, label %103

103:                                              ; preds = %100
  %104 = load i32, ptr %1, align 4, !tbaa !10
  %105 = icmp eq i32 %104, 3
  br i1 %105, label %112, label %106

106:                                              ; preds = %103
  %107 = load i32, ptr %1, align 4, !tbaa !10
  %108 = icmp eq i32 %107, 2
  br i1 %108, label %112, label %109

109:                                              ; preds = %106
  %110 = load i32, ptr %1, align 4, !tbaa !10
  %111 = icmp eq i32 %110, 4
  br i1 %111, label %112, label %149

112:                                              ; preds = %109, %106, %103, %100
  %113 = load i32, ptr %7, align 4, !tbaa !10
  %114 = load i32, ptr %8, align 4, !tbaa !10
  %115 = icmp eq i32 %113, %114
  br i1 %115, label %142, label %116

116:                                              ; preds = %112
  br label %117

117:                                              ; preds = %116
  %118 = load i32, ptr %1, align 4, !tbaa !10
  %119 = icmp eq i32 %118, 2
  br i1 %119, label %123, label %120

120:                                              ; preds = %117
  %121 = load i32, ptr %1, align 4, !tbaa !10
  %122 = icmp eq i32 %121, 4
  br i1 %122, label %123, label %125

123:                                              ; preds = %120, %117
  %124 = load i32, ptr %2, align 4, !tbaa !10
  store i32 %124, ptr %1, align 4, !tbaa !10
  br label %139

125:                                              ; preds = %120
  %126 = call i32 (ptr, ...) @printf(ptr noundef @.str, ptr noundef @.str.1, i32 noundef 53414)
  %127 = load ptr, ptr @stdout, align 8, !tbaa !22
  %128 = call i32 @fputs(ptr noundef @.str.2, ptr noundef %127)
  %129 = call i32 (ptr, ...) @printf(ptr noundef @.str.3, ptr noundef @.str.1499, ptr noundef @.str.1024)
  %130 = load ptr, ptr @stdout, align 8, !tbaa !22
  %131 = call i32 @fputs(ptr noundef @.str.6, ptr noundef %130)
  %132 = load i32, ptr %7, align 4, !tbaa !10
  %133 = load i32, ptr %8, align 4, !tbaa !10
  %134 = call i32 (ptr, ...) @printf(ptr noundef @.str.7, i32 noundef %132, i32 noundef %133)
  %135 = load ptr, ptr @stdout, align 8, !tbaa !22
  %136 = call i32 @fputs(ptr noundef @.str.8, ptr noundef %135)
  %137 = load ptr, ptr @stdout, align 8, !tbaa !22
  %138 = call i32 @fflush(ptr noundef %137)
  store i32 0, ptr %1, align 4, !tbaa !10
  br label %139

139:                                              ; preds = %125, %123
  br label %140

140:                                              ; preds = %139
  br label %141

141:                                              ; preds = %140
  br label %148

142:                                              ; preds = %112
  %143 = load i32, ptr %1, align 4, !tbaa !10
  %144 = icmp eq i32 %143, 4
  br i1 %144, label %145, label %146

145:                                              ; preds = %142
  store i32 2, ptr %1, align 4, !tbaa !10
  br label %147

146:                                              ; preds = %142
  store i32 1, ptr %1, align 4, !tbaa !10
  br label %147

147:                                              ; preds = %146, %145
  br label %148

148:                                              ; preds = %147, %141
  br label %149

149:                                              ; preds = %148, %109
  %150 = load i32, ptr %1, align 4, !tbaa !10
  %151 = icmp eq i32 %150, 2
  br i1 %151, label %152, label %155

152:                                              ; preds = %149
  %153 = load i32, ptr %2, align 4, !tbaa !10
  %154 = add nsw i32 %153, -1
  store i32 %154, ptr %2, align 4, !tbaa !10
  br label %155

155:                                              ; preds = %152, %149
  br label %156

156:                                              ; preds = %155
  br label %157

157:                                              ; preds = %156
  call void @llvm.lifetime.end.p0(i64 4, ptr %8) #14
  call void @llvm.lifetime.end.p0(i64 4, ptr %7) #14
  br label %158

158:                                              ; preds = %157, %94
  br label %159

159:                                              ; preds = %158
  br label %160

160:                                              ; preds = %159
  br label %161

161:                                              ; preds = %160
  %162 = load i32, ptr %1, align 4, !tbaa !10
  %163 = icmp eq i32 %162, 1
  br i1 %163, label %173, label %164

164:                                              ; preds = %161
  %165 = load i32, ptr %1, align 4, !tbaa !10
  %166 = icmp eq i32 %165, 3
  br i1 %166, label %173, label %167

167:                                              ; preds = %164
  %168 = load i32, ptr %1, align 4, !tbaa !10
  %169 = icmp eq i32 %168, 2
  br i1 %169, label %173, label %170

170:                                              ; preds = %167
  %171 = load i32, ptr %1, align 4, !tbaa !10
  %172 = icmp eq i32 %171, 4
  br i1 %172, label %173, label %207

173:                                              ; preds = %170, %167, %164, %161
  %174 = load ptr, ptr %3, align 8, !tbaa !137
  %175 = icmp ne ptr %174, null
  br i1 %175, label %200, label %176

176:                                              ; preds = %173
  br label %177

177:                                              ; preds = %176
  %178 = load i32, ptr %1, align 4, !tbaa !10
  %179 = icmp eq i32 %178, 2
  br i1 %179, label %183, label %180

180:                                              ; preds = %177
  %181 = load i32, ptr %1, align 4, !tbaa !10
  %182 = icmp eq i32 %181, 4
  br i1 %182, label %183, label %185

183:                                              ; preds = %180, %177
  %184 = load i32, ptr %2, align 4, !tbaa !10
  store i32 %184, ptr %1, align 4, !tbaa !10
  br label %197

185:                                              ; preds = %180
  %186 = call i32 (ptr, ...) @printf(ptr noundef @.str, ptr noundef @.str.1, i32 noundef 53415)
  %187 = load ptr, ptr @stdout, align 8, !tbaa !22
  %188 = call i32 @fputs(ptr noundef @.str.2, ptr noundef %187)
  %189 = call i32 (ptr, ...) @printf(ptr noundef @.str.989, ptr noundef @.str.1500)
  %190 = load ptr, ptr @stdout, align 8, !tbaa !22
  %191 = call i32 @fputs(ptr noundef @.str.6, ptr noundef %190)
  %192 = call i32 (ptr, ...) @printf(ptr noundef @.str.1501)
  %193 = load ptr, ptr @stdout, align 8, !tbaa !22
  %194 = call i32 @fputs(ptr noundef @.str.8, ptr noundef %193)
  %195 = load ptr, ptr @stdout, align 8, !tbaa !22
  %196 = call i32 @fflush(ptr noundef %195)
  store i32 0, ptr %1, align 4, !tbaa !10
  br label %197

197:                                              ; preds = %185, %183
  br label %198

198:                                              ; preds = %197
  br label %199

199:                                              ; preds = %198
  br label %206

200:                                              ; preds = %173
  %201 = load i32, ptr %1, align 4, !tbaa !10
  %202 = icmp eq i32 %201, 4
  br i1 %202, label %203, label %204

203:                                              ; preds = %200
  store i32 2, ptr %1, align 4, !tbaa !10
  br label %205

204:                                              ; preds = %200
  store i32 1, ptr %1, align 4, !tbaa !10
  br label %205

205:                                              ; preds = %204, %203
  br label %206

206:                                              ; preds = %205, %199
  br label %207

207:                                              ; preds = %206, %170
  %208 = load i32, ptr %1, align 4, !tbaa !10
  %209 = icmp eq i32 %208, 2
  br i1 %209, label %210, label %213

210:                                              ; preds = %207
  %211 = load i32, ptr %2, align 4, !tbaa !10
  %212 = add nsw i32 %211, -1
  store i32 %212, ptr %2, align 4, !tbaa !10
  br label %213

213:                                              ; preds = %210, %207
  br label %214

214:                                              ; preds = %213
  br label %215

215:                                              ; preds = %214
  call void @wc_FreeDer(ptr noundef %3)
  %216 = load i32, ptr %1, align 4, !tbaa !10
  %217 = icmp eq i32 %216, 2
  br i1 %217, label %218, label %219

218:                                              ; preds = %215
  br label %227

219:                                              ; preds = %215
  %220 = load i32, ptr %1, align 4, !tbaa !10
  %221 = icmp eq i32 %220, 4
  br i1 %221, label %222, label %223

222:                                              ; preds = %219
  br label %225

223:                                              ; preds = %219
  %224 = load i32, ptr %1, align 4, !tbaa !10
  br label %225

225:                                              ; preds = %223, %222
  %226 = phi i32 [ 3, %222 ], [ %224, %223 ]
  br label %227

227:                                              ; preds = %225, %218
  %228 = phi i32 [ 1, %218 ], [ %226, %225 ]
  call void @llvm.lifetime.end.p0(i64 4, ptr %4) #14
  call void @llvm.lifetime.end.p0(i64 8, ptr %3) #14
  call void @llvm.lifetime.end.p0(i64 4, ptr %2) #14
  call void @llvm.lifetime.end.p0(i64 4, ptr %1) #14
  ret i32 %228
}