; Function Attrs: nounwind uwtable
define internal range(i32 0, 2) i32 @test_wc_AllocDer() #0 {
  %1 = alloca ptr, align 8
  call void @llvm.lifetime.start.p0(i64 8, ptr nonnull %1) #27
  store ptr null, ptr %1, align 8, !tbaa !121
  %2 = tail call i32 @wc_AllocDer(ptr noundef null, i32 noundef 1024, i32 noundef 0, ptr noundef null) #27
  %3 = icmp eq i32 %2, -173
  br i1 %3, label %16, label %4

4:                                                ; preds = %0
  %5 = tail call i32 (ptr, ...) @printf(ptr noundef nonnull dereferenceable(1) @.str, ptr noundef nonnull @.str.1, i32 noundef 53413)
  %6 = load ptr, ptr @stdout, align 8, !tbaa !22
  %7 = tail call i64 @fwrite(ptr nonnull @.str.2, i64 15, i64 1, ptr %6)
  %8 = tail call i32 (ptr, ...) @printf(ptr noundef nonnull dereferenceable(1) @.str.3, ptr noundef nonnull @.str.1498, ptr noundef nonnull @.str.1078)
  %9 = load ptr, ptr @stdout, align 8, !tbaa !22
  %10 = tail call i64 @fwrite(ptr nonnull @.str.6, i64 15, i64 1, ptr %9)
  %11 = tail call i32 (ptr, ...) @printf(ptr noundef nonnull dereferenceable(1) @.str.7, i32 noundef %2, i32 noundef -173)
  %12 = load ptr, ptr @stdout, align 8, !tbaa !22
  %13 = tail call i64 @fwrite(ptr nonnull @.str.8, i64 2, i64 1, ptr %12)
  %14 = load ptr, ptr @stdout, align 8, !tbaa !22
  %15 = tail call i32 @fflush(ptr noundef %14)
  br label %.thread93

16:                                               ; preds = %0
  %17 = call i32 @wc_AllocDer(ptr noundef nonnull %1, i32 noundef 1024, i32 noundef 0, ptr noundef null) #27
  %18 = icmp eq i32 %17, 0
  br i1 %18, label %31, label %19

19:                                               ; preds = %16
  %20 = call i32 (ptr, ...) @printf(ptr noundef nonnull dereferenceable(1) @.str, ptr noundef nonnull @.str.1, i32 noundef 53414)
  %21 = load ptr, ptr @stdout, align 8, !tbaa !22
  %22 = call i64 @fwrite(ptr nonnull @.str.2, i64 15, i64 1, ptr %21)
  %23 = call i32 (ptr, ...) @printf(ptr noundef nonnull dereferenceable(1) @.str.3, ptr noundef nonnull @.str.1499, ptr noundef nonnull @.str.1024)
  %24 = load ptr, ptr @stdout, align 8, !tbaa !22
  %25 = call i64 @fwrite(ptr nonnull @.str.6, i64 15, i64 1, ptr %24)
  %26 = call i32 (ptr, ...) @printf(ptr noundef nonnull dereferenceable(1) @.str.7, i32 noundef %17, i32 noundef 0)
  %27 = load ptr, ptr @stdout, align 8, !tbaa !22
  %28 = call i64 @fwrite(ptr nonnull @.str.8, i64 2, i64 1, ptr %27)
  %29 = load ptr, ptr @stdout, align 8, !tbaa !22
  %30 = call i32 @fflush(ptr noundef %29)
  br label %.thread93

31:                                               ; preds = %16
  %32 = load ptr, ptr %1, align 8, !tbaa !121
  %.not = icmp eq ptr %32, null
  br i1 %.not, label %33, label %.thread93

33:                                               ; preds = %31
  %34 = call i32 (ptr, ...) @printf(ptr noundef nonnull dereferenceable(1) @.str, ptr noundef nonnull @.str.1, i32 noundef 53415)
  %35 = load ptr, ptr @stdout, align 8, !tbaa !22
  %36 = call i64 @fwrite(ptr nonnull @.str.2, i64 15, i64 1, ptr %35)
  %37 = call i32 (ptr, ...) @printf(ptr noundef nonnull dereferenceable(1) @.str.989, ptr noundef nonnull @.str.1500)
  %38 = load ptr, ptr @stdout, align 8, !tbaa !22
  %39 = call i64 @fwrite(ptr nonnull @.str.6, i64 15, i64 1, ptr %38)
  %40 = call i32 (ptr, ...) @printf(ptr noundef nonnull dereferenceable(1) @.str.1501)
  %41 = load ptr, ptr @stdout, align 8, !tbaa !22
  %42 = call i64 @fwrite(ptr nonnull @.str.8, i64 2, i64 1, ptr %41)
  %43 = load ptr, ptr @stdout, align 8, !tbaa !22
  %44 = call i32 @fflush(ptr noundef %43)
  br label %.thread93

.thread93:                                        ; preds = %19, %4, %33, %31
  %.4 = phi i32 [ 0, %33 ], [ 1, %31 ], [ 0, %4 ], [ 0, %19 ]
  call void @wc_FreeDer(ptr noundef nonnull %1) #27
  call void @llvm.lifetime.end.p0(i64 8, ptr nonnull %1) #27
  ret i32 %.4
}